target datalayout = "e-m:e-p270:32:32-p271:32:32-p272:64:64-i64:64-i128:128-f80:128-n8:16:32:64-S128"
target triple = "x86_64-pc-linux-gnu"

%struct.FDCTDSPContext = type { ptr, ptr }

; Function Attrs: nounwind uwtable
define internal void @prores_fdct(ptr noundef %0, ptr noundef %1, i64 noundef %2, ptr noundef %3) #1 {
  %5 = alloca ptr, align 8
  %6 = alloca ptr, align 8
  %7 = alloca i64, align 8
  %8 = alloca ptr, align 8
  %9 = alloca i32, align 4
  %10 = alloca i32, align 4
  %11 = alloca ptr, align 8
  store ptr %0, ptr %5, align 8, !tbaa !124
  store ptr %1, ptr %6, align 8, !tbaa !126
  store i64 %2, ptr %7, align 8, !tbaa !127
  store ptr %3, ptr %8, align 8, !tbaa !126
  call void @llvm.lifetime.start.p0(i64 4, ptr %9) #11
  call void @llvm.lifetime.start.p0(i64 4, ptr %10) #11
  call void @llvm.lifetime.start.p0(i64 8, ptr %11) #11
  %12 = load ptr, ptr %6, align 8, !tbaa !126
  store ptr %12, ptr %11, align 8, !tbaa !126
  store i32 0, ptr %10, align 4, !tbaa !32
  br label %13

13:                                               ; preds = %41, %4
  %14 = load i32, ptr %10, align 4, !tbaa !32
  %15 = icmp slt i32 %14, 8
  br i1 %15, label %16, label %44

16:                                               ; preds = %13
  store i32 0, ptr %9, align 4, !tbaa !32
  br label %17

17:                                               ; preds = %33, %16
  %18 = load i32, ptr %9, align 4, !tbaa !32
  %19 = icmp slt i32 %18, 8
  br i1 %19, label %20, label %36

20:                                               ; preds = %17
  %21 = load ptr, ptr %11, align 8, !tbaa !126
  %22 = load i32, ptr %9, align 4, !tbaa !32
  %23 = sext i32 %22 to i64
  %24 = getelementptr inbounds i16, ptr %21, i64 %23
  %25 = load i16, ptr %24, align 2, !tbaa !77
  %26 = load ptr, ptr %8, align 8, !tbaa !126
  %27 = load i32, ptr %10, align 4, !tbaa !32
  %28 = mul nsw i32 %27, 8
  %29 = load i32, ptr %9, align 4, !tbaa !32
  %30 = add nsw i32 %28, %29
  %31 = sext i32 %30 to i64
  %32 = getelementptr inbounds i16, ptr %26, i64 %31
  store i16 %25, ptr %32, align 2, !tbaa !77
  br label %33

33:                                               ; preds = %20
  %34 = load i32, ptr %9, align 4, !tbaa !32
  %35 = add nsw i32 %34, 1
  store i32 %35, ptr %9, align 4, !tbaa !32
  br label %17, !llvm.loop !128

36:                                               ; preds = %17
  %37 = load i64, ptr %7, align 8, !tbaa !127
  %38 = ashr i64 %37, 1
  %39 = load ptr, ptr %11, align 8, !tbaa !126
  %40 = getelementptr inbounds i16, ptr %39, i64 %38
  store ptr %40, ptr %11, align 8, !tbaa !126
  br label %41

41:                                               ; preds = %36
  %42 = load i32, ptr %10, align 4, !tbaa !32
  %43 = add nsw i32 %42, 1
  store i32 %43, ptr %10, align 4, !tbaa !32
  br label %13, !llvm.loop !129

44:                                               ; preds = %13
  %45 = load ptr, ptr %5, align 8, !tbaa !124
  %46 = getelementptr inbounds nuw %struct.FDCTDSPContext, ptr %45, i32 0, i32 0
  %47 = load ptr, ptr %46, align 8, !tbaa !130
  %48 = load ptr, ptr %8, align 8, !tbaa !126
  call void %47(ptr noundef %48)
  call void @llvm.lifetime.end.p0(i64 8, ptr %11) #11
  call void @llvm.lifetime.end.p0(i64 4, ptr %10) #11
  call void @llvm.lifetime.end.p0(i64 4, ptr %9) #11
  ret void
}