; Function Attrs: nounwind uwtable
define internal void @prores_fdct(ptr noundef readonly captures(none) %0, ptr noundef readonly captures(none) %1, i64 noundef %2, ptr noundef %3) #1 {
  %5 = ashr i64 %2, 1
  br label %.preheader

.preheader:                                       ; preds = %4, %9
  %indvars.iv19 = phi i64 [ 0, %4 ], [ %indvars.iv.next20, %9 ]
  %.017 = phi ptr [ %1, %4 ], [ %10, %9 ]
  %.idx = shl nuw nsw i64 %indvars.iv19, 4
  %invariant.gep = getelementptr inbounds nuw i8, ptr %3, i64 %.idx
  br label %6

6:                                                ; preds = %.preheader, %6
  %indvars.iv = phi i64 [ 0, %.preheader ], [ %indvars.iv.next, %6 ]
  %7 = getelementptr inbounds nuw i16, ptr %.017, i64 %indvars.iv
  %8 = load i16, ptr %7, align 2, !tbaa !71
  %gep = getelementptr inbounds nuw i16, ptr %invariant.gep, i64 %indvars.iv
  store i16 %8, ptr %gep, align 2, !tbaa !71
  %indvars.iv.next = add nuw nsw i64 %indvars.iv, 1
  %exitcond.not = icmp eq i64 %indvars.iv.next, 8
  br i1 %exitcond.not, label %9, label %6, !llvm.loop !134

9:                                                ; preds = %6
  %10 = getelementptr inbounds i16, ptr %.017, i64 %5
  %indvars.iv.next20 = add nuw nsw i64 %indvars.iv19, 1
  %exitcond22.not = icmp eq i64 %indvars.iv.next20, 8
  br i1 %exitcond22.not, label %11, label %.preheader, !llvm.loop !135

11:                                               ; preds = %9
  %12 = load ptr, ptr %0, align 8, !tbaa !136
  tail call void %12(ptr noundef nonnull %3) #11
  ret void
}